target datalayout = "e-m:e-p270:32:32-p271:32:32-p272:64:64-i64:64-i128:128-f80:128-n8:16:32:64-S128"
target triple = "x86_64-pc-linux-gnu"

%struct.Aig_Obj_t_ = type { %union.anon, ptr, ptr, i64, i32, i32, %union.anon.0 }
%union.anon = type { ptr }
%union.anon.0 = type { ptr }
%struct.Fra_Sml_t_ = type { ptr, i32, i32, i32, i32, i32, i32, i32, i32, [0 x i32] }

; Function Attrs: inlinehint nounwind uwtable
define internal ptr @Fra_ObjSim(ptr noundef %0, i32 noundef %1) #2 {
  %3 = alloca ptr, align 8
  %4 = alloca i32, align 4
  store ptr %0, ptr %3, align 8, !tbaa !35
  store i32 %1, ptr %4, align 4, !tbaa !8
  %5 = load ptr, ptr %3, align 8, !tbaa !35
  %6 = getelementptr inbounds nuw %struct.Fra_Sml_t_, ptr %5, i32 0, i32 9
  %7 = getelementptr inbounds [0 x i32], ptr %6, i64 0, i64 0
  %8 = load ptr, ptr %3, align 8, !tbaa !35
  %9 = getelementptr inbounds nuw %struct.Fra_Sml_t_, ptr %8, i32 0, i32 4
  %10 = load i32, ptr %9, align 4, !tbaa !32
  %11 = load i32, ptr %4, align 4, !tbaa !8
  %12 = mul nsw i32 %10, %11
  %13 = sext i32 %12 to i64
  %14 = getelementptr inbounds i32, ptr %7, i64 %13
  ret ptr %14
}

; Function Attrs: nounwind uwtable
define i32 @Fra_SmlNodesCompareInFrame(ptr noundef %0, ptr noundef %1, ptr noundef %2, i32 noundef %3, i32 noundef %4) #0 {
  %6 = alloca i32, align 4
  %7 = alloca ptr, align 8
  %8 = alloca ptr, align 8
  %9 = alloca ptr, align 8
  %10 = alloca i32, align 4
  %11 = alloca i32, align 4
  %12 = alloca ptr, align 8
  %13 = alloca ptr, align 8
  %14 = alloca i32, align 4
  %15 = alloca i32, align 4
  store ptr %0, ptr %7, align 8, !tbaa !35
  store ptr %1, ptr %8, align 8, !tbaa !3
  store ptr %2, ptr %9, align 8, !tbaa !3
  store i32 %3, ptr %10, align 4, !tbaa !8
  store i32 %4, ptr %11, align 4, !tbaa !8
  call void @llvm.lifetime.start.p0(i64 8, ptr %12) #8
  call void @llvm.lifetime.start.p0(i64 8, ptr %13) #8
  call void @llvm.lifetime.start.p0(i64 4, ptr %14) #8
  %16 = load ptr, ptr %7, align 8, !tbaa !35
  %17 = load ptr, ptr %8, align 8, !tbaa !3
  %18 = getelementptr inbounds nuw %struct.Aig_Obj_t_, ptr %17, i32 0, i32 5
  %19 = load i32, ptr %18, align 4, !tbaa !27
  %20 = call ptr @Fra_ObjSim(ptr noundef %16, i32 noundef %19)
  %21 = load ptr, ptr %7, align 8, !tbaa !35
  %22 = getelementptr inbounds nuw %struct.Fra_Sml_t_, ptr %21, i32 0, i32 3
  %23 = load i32, ptr %22, align 8, !tbaa !92
  %24 = load i32, ptr %10, align 4, !tbaa !8
  %25 = mul nsw i32 %23, %24
  %26 = sext i32 %25 to i64
  %27 = getelementptr inbounds i32, ptr %20, i64 %26
  store ptr %27, ptr %12, align 8, !tbaa !29
  %28 = load ptr, ptr %7, align 8, !tbaa !35
  %29 = load ptr, ptr %9, align 8, !tbaa !3
  %30 = getelementptr inbounds nuw %struct.Aig_Obj_t_, ptr %29, i32 0, i32 5
  %31 = load i32, ptr %30, align 4, !tbaa !27
  %32 = call ptr @Fra_ObjSim(ptr noundef %28, i32 noundef %31)
  %33 = load ptr, ptr %7, align 8, !tbaa !35
  %34 = getelementptr inbounds nuw %struct.Fra_Sml_t_, ptr %33, i32 0, i32 3
  %35 = load i32, ptr %34, align 8, !tbaa !92
  %36 = load i32, ptr %11, align 4, !tbaa !8
  %37 = mul nsw i32 %35, %36
  %38 = sext i32 %37 to i64
  %39 = getelementptr inbounds i32, ptr %32, i64 %38
  store ptr %39, ptr %13, align 8, !tbaa !29
  store i32 0, ptr %14, align 4, !tbaa !8
  br label %40

40:                                               ; preds = %60, %5
  %41 = load i32, ptr %14, align 4, !tbaa !8
  %42 = load ptr, ptr %7, align 8, !tbaa !35
  %43 = getelementptr inbounds nuw %struct.Fra_Sml_t_, ptr %42, i32 0, i32 3
  %44 = load i32, ptr %43, align 8, !tbaa !92
  %45 = icmp slt i32 %41, %44
  br i1 %45, label %46, label %63

46:                                               ; preds = %40
  %47 = load ptr, ptr %12, align 8, !tbaa !29
  %48 = load i32, ptr %14, align 4, !tbaa !8
  %49 = sext i32 %48 to i64
  %50 = getelementptr inbounds i32, ptr %47, i64 %49
  %51 = load i32, ptr %50, align 4, !tbaa !8
  %52 = load ptr, ptr %13, align 8, !tbaa !29
  %53 = load i32, ptr %14, align 4, !tbaa !8
  %54 = sext i32 %53 to i64
  %55 = getelementptr inbounds i32, ptr %52, i64 %54
  %56 = load i32, ptr %55, align 4, !tbaa !8
  %57 = icmp ne i32 %51, %56
  br i1 %57, label %58, label %59

58:                                               ; preds = %46
  store i32 0, ptr %6, align 4
  store i32 1, ptr %15, align 4
  br label %64

59:                                               ; preds = %46
  br label %60

60:                                               ; preds = %59
  %61 = load i32, ptr %14, align 4, !tbaa !8
  %62 = add nsw i32 %61, 1
  store i32 %62, ptr %14, align 4, !tbaa !8
  br label %40, !llvm.loop !114

63:                                               ; preds = %40
  store i32 1, ptr %6, align 4
  store i32 1, ptr %15, align 4
  br label %64

64:                                               ; preds = %63, %58
  call void @llvm.lifetime.end.p0(i64 4, ptr %14) #8
  call void @llvm.lifetime.end.p0(i64 8, ptr %13) #8
  call void @llvm.lifetime.end.p0(i64 8, ptr %12) #8
  %65 = load i32, ptr %6, align 4
  ret i32 %65
}