; Function Attrs: nofree norecurse nosync nounwind memory(argmem: read) uwtable
define range(i32 0, 2) i32 @Fra_SmlNodesCompareInFrame(ptr noundef readonly captures(none) %0, ptr noundef readonly captures(none) %1, ptr noundef readonly captures(none) %2, i32 noundef %3, i32 noundef %4) local_unnamed_addr #2 {
  %6 = getelementptr inbounds nuw i8, ptr %1, i64 36
  %7 = load i32, ptr %6, align 4, !tbaa !22
  %8 = getelementptr inbounds nuw i8, ptr %0, i64 40
  %9 = getelementptr inbounds nuw i8, ptr %0, i64 20
  %10 = load i32, ptr %9, align 4, !tbaa !25
  %11 = mul nsw i32 %10, %7
  %12 = sext i32 %11 to i64
  %13 = getelementptr inbounds i32, ptr %8, i64 %12
  %14 = getelementptr inbounds nuw i8, ptr %0, i64 16
  %15 = load i32, ptr %14, align 8, !tbaa !83
  %16 = mul nsw i32 %15, %3
  %17 = sext i32 %16 to i64
  %18 = getelementptr inbounds i32, ptr %13, i64 %17
  %19 = getelementptr inbounds nuw i8, ptr %2, i64 36
  %20 = load i32, ptr %19, align 4, !tbaa !22
  %21 = mul nsw i32 %20, %10
  %22 = sext i32 %21 to i64
  %23 = getelementptr inbounds i32, ptr %8, i64 %22
  %24 = mul nsw i32 %15, %4
  %25 = sext i32 %24 to i64
  %26 = getelementptr inbounds i32, ptr %23, i64 %25
  %27 = icmp sgt i32 %15, 0
  br i1 %27, label %.lr.ph.preheader, label %._crit_edge

.lr.ph.preheader:                                 ; preds = %5
  %wide.trip.count = zext nneg i32 %15 to i64
  br label %.lr.ph

28:                                               ; preds = %.lr.ph
  %indvars.iv.next = add nuw nsw i64 %indvars.iv, 1
  %exitcond.not = icmp eq i64 %indvars.iv.next, %wide.trip.count
  br i1 %exitcond.not, label %._crit_edge, label %.lr.ph, !llvm.loop !105

.lr.ph:                                           ; preds = %.lr.ph.preheader, %28
  %indvars.iv = phi i64 [ 0, %.lr.ph.preheader ], [ %indvars.iv.next, %28 ]
  %29 = getelementptr inbounds nuw i32, ptr %18, i64 %indvars.iv
  %30 = load i32, ptr %29, align 4, !tbaa !28
  %31 = getelementptr inbounds nuw i32, ptr %26, i64 %indvars.iv
  %32 = load i32, ptr %31, align 4, !tbaa !28
  %.not = icmp eq i32 %30, %32
  br i1 %.not, label %28, label %._crit_edge

._crit_edge:                                      ; preds = %.lr.ph, %28, %5
  %.015 = phi i32 [ 1, %5 ], [ 1, %28 ], [ 0, %.lr.ph ]
  ret i32 %.015
}